000083b4 <main>:
    83b4:	push	{fp, lr}
    83b8:	add	fp, sp, #4
    83bc:	sub	sp, sp, #8
    83c0:	mov	r3, #0
    83c4:	str	r3, [fp, #-8]
    83c8:	mov	r3, #0
    83cc:	str	r3, [fp, #-12]
    83d0:	ldr	r3, [fp, #-8]
    83d4:	add	r3, r3, #1
    83d8:	str	r3, [fp, #-8]
    83dc:	ldr	r2, [fp, #-8]
    83e0:	ldr	r3, [fp, #-8]
    83e4:	add	r2, r2, r3
    83e8:	ldr	r3, [fp, #-8]
    83ec:	add	r3, r3, #1
    83f0:	str	r3, [fp, #-8]
    83f4:	ldr	r3, [fp, #-8]
    83f8:	add	r2, r2, r3
    83fc:	ldr	r3, [fp, #-8]
    8400:	add	r2, r2, r3
    8404:	ldr	r3, [fp, #-8]
    8408:	add	r3, r2, r3
    840c:	str	r3, [fp, #-12]
    8410:	ldr	r3, [fp, #-8]
    8414:	add	r3, r3, #1
    8418:	str	r3, [fp, #-8]
    841c:	ldr	r3, [fp, #-8]
    8420:	add	r3, r3, #1
    8424:	str	r3, [fp, #-8]
    8428:	ldr	r3, [fp, #-8]
    842c:	add	r3, r3, #1
    8430:	str	r3, [fp, #-8]
    8434:	movw	r3, #34020	; 0x84e4
    8438:	movt	r3, #0
    843c:	mov	r0, r3
    8440:	ldr	r1, [fp, #-8]
    8444:	bl	82fc <_init+0x44>
    8448:	movw	r3, #34028	; 0x84ec
    844c:	movt	r3, #0
    8450:	mov	r0, r3
    8454:	ldr	r1, [fp, #-12]
    8458:	bl	82fc <_init+0x44>
    845c:	mov	r3, #0
    8460:	mov	r0, r3
    8464:	sub	sp, fp, #4
    8468:	pop	{fp, pc}

0000846c <__libc_csu_init>:
    846c:	e92d45f8 	push	{r3, r4, r5, r6, r7, r8, sl, lr}
    8470:	e59f5050 	ldr	r5, [pc, #80]	; 84c8 <__libc_csu_init+0x5c>
    8474:	e59fa050 	ldr	sl, [pc, #80]	; 84cc <__libc_csu_init+0x60>
    8478:	e1a06000 	mov	r6, r0
    847c:	e1a07001 	mov	r7, r1
    8480:	e1a08002 	mov	r8, r2
    8484:	ebffff8b 	bl	82b8 <_init>
    8488:	e59f3040 	ldr	r3, [pc, #64]	; 84d0 <__libc_csu_init+0x64>
    848c:	e065a00a 	rsb	sl, r5, sl
    8490:	e08f3003 	add	r3, pc, r3
    8494:	e1b0a14a 	asrs	sl, sl, #2
    8498:	e0835005 	add	r5, r3, r5
    849c:	08bd85f8 	popeq	{r3, r4, r5, r6, r7, r8, sl, pc}
    84a0:	e3a04000 	mov	r4, #0
    84a4:	e4953004 	ldr	r3, [r5], #4
    84a8:	e1a00006 	mov	r0, r6
    84ac:	e1a01007 	mov	r1, r7
    84b0:	e1a02008 	mov	r2, r8
    84b4:	e2844001 	add	r4, r4, #1
    84b8:	e12fff33 	blx	r3
    84bc:	e154000a 	cmp	r4, sl
    84c0:	3afffff7 	bcc	84a4 <__libc_csu_init+0x38>
    84c4:	e8bd85f8 	pop	{r3, r4, r5, r6, r7, r8, sl, pc}
    84c8:	ffffff0c 	undefined instruction 0xffffff0c
    84cc:	ffffff10 	undefined instruction 0xffffff10
    84d0:	00008b68 	andeq	r8, r0, r8, ror #22

000084d4 <__libc_csu_fini>:
    84d4:	e12fff1e 	bx	lr

Disassembly of section .fini:

000084d8 <_fini>:
    84d8:	e92d4008 	push	{r3, lr}
    84dc:	e8bd8008 	pop	{r3, pc}
