
21asm:     file format elf32-littlearm


Disassembly of section .init:

000082b8 <_init>:
    82b8:	e92d4008 	push	{r3, lr}
    82bc:	eb000020 	bl	8344 <call_gmon_start>
    82c0:	e8bd8008 	pop	{r3, pc}

Disassembly of section .plt:

000082c4 <.plt>:
    82c4:	e52de004 	push	{lr}		; (str lr, [sp, #-4]!)
    82c8:	e59fe004 	ldr	lr, [pc, #4]	; 82d4 <_init+0x1c>
    82cc:	e08fe00e 	add	lr, pc, lr
    82d0:	e5bef008 	ldr	pc, [lr, #8]!
    82d4:	00008d2c 	andeq	r8, r0, ip, lsr #26
    82d8:	e28fc600 	add	ip, pc, #0
    82dc:	e28cca08 	add	ip, ip, #32768	; 0x8000
    82e0:	e5bcfd2c 	ldr	pc, [ip, #3372]!	; 0xd2c
    82e4:	e28fc600 	add	ip, pc, #0
    82e8:	e28cca08 	add	ip, ip, #32768	; 0x8000
    82ec:	e5bcfd24 	ldr	pc, [ip, #3364]!	; 0xd24
    82f0:	e28fc600 	add	ip, pc, #0
    82f4:	e28cca08 	add	ip, ip, #32768	; 0x8000
    82f8:	e5bcfd1c 	ldr	pc, [ip, #3356]!	; 0xd1c
    82fc:	e28fc600 	add	ip, pc, #0
    8300:	e28cca08 	add	ip, ip, #32768	; 0x8000
    8304:	e5bcfd14 	ldr	pc, [ip, #3348]!	; 0xd14

Disassembly of section .text:

00008308 <_start>:
    8308:	e3a0b000 	mov	fp, #0
    830c:	e3a0e000 	mov	lr, #0
    8310:	e49d1004 	pop	{r1}		; (ldr r1, [sp], #4)
    8314:	e1a0200d 	mov	r2, sp
    8318:	e52d2004 	push	{r2}		; (str r2, [sp, #-4]!)
    831c:	e52d0004 	push	{r0}		; (str r0, [sp, #-4]!)
    8320:	e59fc010 	ldr	ip, [pc, #16]	; 8338 <_start+0x30>
    8324:	e52dc004 	push	{ip}		; (str ip, [sp, #-4]!)
    8328:	e59f000c 	ldr	r0, [pc, #12]	; 833c <_start+0x34>
    832c:	e59f300c 	ldr	r3, [pc, #12]	; 8340 <_start+0x38>
    8330:	ebffffeb 	bl	82e4 <_init+0x2c>
    8334:	ebffffe7 	bl	82d8 <_init+0x20>
    8338:	00008448 	andeq	r8, r0, r8, asr #8
    833c:	000083b4 	undefined instruction 0x000083b4
    8340:	000083e0 	andeq	r8, r0, r0, ror #7

00008344 <call_gmon_start>:
    8344:	e59f3014 	ldr	r3, [pc, #20]	; 8360 <call_gmon_start+0x1c>
    8348:	e59f2014 	ldr	r2, [pc, #20]	; 8364 <call_gmon_start+0x20>
    834c:	e08f3003 	add	r3, pc, r3
    8350:	e7932002 	ldr	r2, [r3, r2]
    8354:	e3520000 	cmp	r2, #0
    8358:	012fff1e 	bxeq	lr
    835c:	eaffffe3 	b	82f0 <_init+0x38>
    8360:	00008cac 	andeq	r8, r0, ip, lsr #25
    8364:	0000001c 	andeq	r0, r0, ip, lsl r0

00008368 <__do_global_dtors_aux>:
    8368:	e59f3010 	ldr	r3, [pc, #16]	; 8380 <__do_global_dtors_aux+0x18>
    836c:	e5d32000 	ldrb	r2, [r3]
    8370:	e3520000 	cmp	r2, #0
    8374:	03a02001 	moveq	r2, #1
    8378:	05c32000 	strbeq	r2, [r3]
    837c:	e12fff1e 	bx	lr
    8380:	0001105e 	andeq	r1, r1, lr, asr r0

00008384 <frame_dummy>:
    8384:	e59f0020 	ldr	r0, [pc, #32]	; 83ac <frame_dummy+0x28>
    8388:	e92d4008 	push	{r3, lr}
    838c:	e5903000 	ldr	r3, [r0]
    8390:	e3530000 	cmp	r3, #0
    8394:	08bd8008 	popeq	{r3, pc}
    8398:	e59f3010 	ldr	r3, [pc, #16]	; 83b0 <frame_dummy+0x2c>
    839c:	e3530000 	cmp	r3, #0
    83a0:	08bd8008 	popeq	{r3, pc}
    83a4:	e12fff33 	blx	r3
    83a8:	e8bd8008 	pop	{r3, pc}
    83ac:	00010f14 	andeq	r0, r1, r4, lsl pc
    83b0:	00000000 	andeq	r0, r0, r0

000083b4 <main>:
    83b4:	e92d5fff 	push	{r0, r1, r2, r3, r4, r5, r6, r7, r8, r9, sl, fp, ip, lr}
    83b8:	e59f0014 	ldr	r0, [pc, #20]	; 83d4 <main+0x20>
    83bc:	e59f1014 	ldr	r1, [pc, #20]	; 83d8 <main+0x24>
    83c0:	e59f2014 	ldr	r2, [pc, #20]	; 83dc <main+0x28>
    83c4:	e5922008 	ldr	r2, [r2, #8]
    83c8:	ebffffcb 	bl	82fc <_init+0x44>
    83cc:	e8bd5fff 	pop	{r0, r1, r2, r3, r4, r5, r6, r7, r8, r9, sl, fp, ip, lr}
    83d0:	e12fff1e 	bx	lr
    83d4:	00011044 	andeq	r1, r1, r4, asr #32
    83d8:	00011059 	andeq	r1, r1, r9, asr r0
    83dc:	00011028 	andeq	r1, r1, r8, lsr #32

000083e0 <__libc_csu_init>:
    83e0:	e92d45f8 	push	{r3, r4, r5, r6, r7, r8, sl, lr}
    83e4:	e59f5050 	ldr	r5, [pc, #80]	; 843c <__libc_csu_init+0x5c>
    83e8:	e59fa050 	ldr	sl, [pc, #80]	; 8440 <__libc_csu_init+0x60>
    83ec:	e1a06000 	mov	r6, r0
    83f0:	e1a07001 	mov	r7, r1
    83f4:	e1a08002 	mov	r8, r2
    83f8:	ebffffae 	bl	82b8 <_init>
    83fc:	e59f3040 	ldr	r3, [pc, #64]	; 8444 <__libc_csu_init+0x64>
    8400:	e065a00a 	rsb	sl, r5, sl
    8404:	e08f3003 	add	r3, pc, r3
    8408:	e1b0a14a 	asrs	sl, sl, #2
    840c:	e0835005 	add	r5, r3, r5
    8410:	08bd85f8 	popeq	{r3, r4, r5, r6, r7, r8, sl, pc}
    8414:	e3a04000 	mov	r4, #0
    8418:	e4953004 	ldr	r3, [r5], #4
    841c:	e1a00006 	mov	r0, r6
    8420:	e1a01007 	mov	r1, r7
    8424:	e1a02008 	mov	r2, r8
    8428:	e2844001 	add	r4, r4, #1
    842c:	e12fff33 	blx	r3
    8430:	e154000a 	cmp	r4, sl
    8434:	3afffff7 	bcc	8418 <__libc_csu_init+0x38>
    8438:	e8bd85f8 	pop	{r3, r4, r5, r6, r7, r8, sl, pc}
    843c:	ffffff0c 	undefined instruction 0xffffff0c
    8440:	ffffff10 	undefined instruction 0xffffff10
    8444:	00008bf4 	strdeq	r8, [r0], -r4

00008448 <__libc_csu_fini>:
    8448:	e12fff1e 	bx	lr

Disassembly of section .fini:

0000844c <_fini>:
    844c:	e92d4008 	push	{r3, lr}
    8450:	e8bd8008 	pop	{r3, pc}
